target datalayout = "e-m:e-p270:32:32-p271:32:32-p272:64:64-i64:64-i128:128-f80:128-n8:16:32:64-S128"
target triple = "x86_64-pc-linux-gnu"

@proto_register_dhcpv6.ett_bulk_leasequery = internal global [2 x ptr] [ptr @ett_dhcpv6_bulk_leasequery, ptr @ett_dhcpv6_bulk_leasequery_options], align 16
@.str.446 = private unnamed_addr constant [7 x i8] c"DHCPv6\00", align 1
@.str.447 = private unnamed_addr constant [7 x i8] c"dhcpv6\00", align 1
@proto_dhcpv6 = internal global i32 0, align 4
@.str.448 = private unnamed_addr constant [23 x i8] c"DHCPv6 Bulk Leasequery\00", align 1
@.str.449 = private unnamed_addr constant [23 x i8] c"dhcpv6.bulk_leasequery\00", align 1
@proto_dhcpv6_bulk_leasequery = internal global i32 0, align 4
@dhcpv6_handle = internal global ptr null, align 8
@.str.450 = private unnamed_addr constant [23 x i8] c"cablelabs_interface_id\00", align 1
@.str.451 = private unnamed_addr constant [52 x i8] c"Dissect Option 18 (Interface-Id) as CableLab option\00", align 1
@.str.452 = private unnamed_addr constant [55 x i8] c"Whether Option 18 is dissected as CableLab or RFC 3315\00", align 1
@cablelabs_interface_id = internal global i8 0, align 1
@.str.453 = private unnamed_addr constant [10 x i8] c"desegment\00", align 1
@.str.454 = private unnamed_addr constant [70 x i8] c"Desegment all Bulk Leasequery messages spanning multiple TCP segments\00", align 1
@.str.455 = private unnamed_addr constant [99 x i8] c"Whether the Bulk Leasequery dissector should desegment all messages spanning multiple TCP segments\00", align 1
@dhcpv6_bulk_leasequery_desegment = internal global i8 1, align 1
@.str.456 = private unnamed_addr constant [23 x i8] c"dhcpv6.enterprise_opts\00", align 1
@.str.457 = private unnamed_addr constant [23 x i8] c"DHCPv6 Enterprise OPTs\00", align 1
@dhcpv6_enterprise_opts_dissector_table = internal global ptr null, align 8
@.str.458 = private unnamed_addr constant [17 x i8] c"DHCPv6 Cablelabs\00", align 1
@.str.459 = private unnamed_addr constant [18 x i8] c"DHCPv6(cablelabs)\00", align 1
@.str.460 = private unnamed_addr constant [17 x i8] c"dhcpv6_cablelabs\00", align 1
@proto_dhcpv6_cablelabs = internal global i32 0, align 4
@dhcpv6_cablelabs_handle = internal global ptr null, align 8

; Function Attrs: null_pointer_is_valid sspstrong uwtable
define hidden void @proto_register_dhcpv6() #0 {
  %1 = alloca ptr, align 8
  %2 = alloca ptr, align 8
  %3 = alloca ptr, align 8
  %4 = alloca ptr, align 8
  call void @llvm.lifetime.start.p0(i64 8, ptr %1) #9
  call void @llvm.lifetime.start.p0(i64 8, ptr %2) #9
  call void @llvm.lifetime.start.p0(i64 8, ptr %3) #9
  call void @llvm.lifetime.start.p0(i64 8, ptr %4) #9
  %5 = call i32 @proto_register_protocol(ptr noundef @.str.446, ptr noundef @.str.446, ptr noundef @.str.447)
  store i32 %5, ptr @proto_dhcpv6, align 4
  %6 = load i32, ptr @proto_dhcpv6, align 4
  call void @proto_register_field_array(i32 noundef %6, ptr noundef @proto_register_dhcpv6.hf, i32 noundef 215)
  call void @proto_register_subtree_array(ptr noundef @proto_register_dhcpv6.ett, i32 noundef 20)
  %7 = load i32, ptr @proto_dhcpv6, align 4
  %8 = call ptr @expert_register_protocol(i32 noundef %7)
  store ptr %8, ptr %3, align 8
  %9 = load ptr, ptr %3, align 8
  call void @expert_register_field_array(ptr noundef %9, ptr noundef @proto_register_dhcpv6.ei, i32 noundef 14)
  %10 = call i32 @proto_register_protocol(ptr noundef @.str.448, ptr noundef @.str.448, ptr noundef @.str.449)
  store i32 %10, ptr @proto_dhcpv6_bulk_leasequery, align 4
  %11 = load i32, ptr @proto_dhcpv6_bulk_leasequery, align 4
  %12 = call ptr @register_dissector(ptr noundef @.str.449, ptr noundef @dissect_dhcpv6_bulk_leasequery, i32 noundef %11)
  %13 = load i32, ptr @proto_dhcpv6_bulk_leasequery, align 4
  call void @proto_register_field_array(i32 noundef %13, ptr noundef @proto_register_dhcpv6.bulk_leasequery_hf, i32 noundef 4)
  call void @proto_register_subtree_array(ptr noundef @proto_register_dhcpv6.ett_bulk_leasequery, i32 noundef 2)
  %14 = load i32, ptr @proto_dhcpv6_bulk_leasequery, align 4
  %15 = call ptr @expert_register_protocol(i32 noundef %14)
  store ptr %15, ptr %4, align 8
  %16 = load ptr, ptr %4, align 8
  call void @expert_register_field_array(ptr noundef %16, ptr noundef @proto_register_dhcpv6.ei_bulk_leasequery, i32 noundef 2)
  %17 = load i32, ptr @proto_dhcpv6, align 4
  %18 = call ptr @register_dissector(ptr noundef @.str.447, ptr noundef @dissect_dhcpv6_stream, i32 noundef %17)
  store ptr %18, ptr @dhcpv6_handle, align 8
  %19 = load i32, ptr @proto_dhcpv6, align 4
  %20 = call ptr @prefs_register_protocol(i32 noundef %19, ptr noundef null)
  store ptr %20, ptr %2, align 8
  %21 = load ptr, ptr %2, align 8
  call void @prefs_register_bool_preference(ptr noundef %21, ptr noundef @.str.450, ptr noundef @.str.451, ptr noundef @.str.452, ptr noundef @cablelabs_interface_id)
  %22 = load i32, ptr @proto_dhcpv6_bulk_leasequery, align 4
  %23 = call ptr @prefs_register_protocol(i32 noundef %22, ptr noundef null)
  store ptr %23, ptr %1, align 8
  %24 = load ptr, ptr %1, align 8
  call void @prefs_register_bool_preference(ptr noundef %24, ptr noundef @.str.453, ptr noundef @.str.454, ptr noundef @.str.455, ptr noundef @dhcpv6_bulk_leasequery_desegment)
  %25 = load i32, ptr @proto_dhcpv6, align 4
  %26 = call ptr @register_dissector_table(ptr noundef @.str.456, ptr noundef @.str.457, i32 noundef %25, i32 noundef 7, i32 noundef 1)
  store ptr %26, ptr @dhcpv6_enterprise_opts_dissector_table, align 8
  %27 = call i32 @proto_register_protocol(ptr noundef @.str.458, ptr noundef @.str.459, ptr noundef @.str.460)
  store i32 %27, ptr @proto_dhcpv6_cablelabs, align 4
  %28 = load i32, ptr @proto_dhcpv6_cablelabs, align 4
  %29 = call ptr @register_dissector(ptr noundef @.str.460, ptr noundef @dissect_cablelabs_specific_opts, i32 noundef %28)
  store ptr %29, ptr @dhcpv6_cablelabs_handle, align 8
  %30 = load ptr, ptr @dhcpv6_cablelabs_handle, align 8
  call void @dissector_add_uint(ptr noundef @.str.456, i32 noundef 4491, ptr noundef %30)
  call void @llvm.lifetime.end.p0(i64 8, ptr %4) #9
  call void @llvm.lifetime.end.p0(i64 8, ptr %3) #9
  call void @llvm.lifetime.end.p0(i64 8, ptr %2) #9
  call void @llvm.lifetime.end.p0(i64 8, ptr %1) #9
  ret void
}