; Function Attrs: null_pointer_is_valid sspstrong uwtable
define hidden void @proto_register_dhcpv6() local_unnamed_addr #0 {
  %1 = tail call i32 @proto_register_protocol(ptr noundef nonnull @.str.446, ptr noundef nonnull @.str.446, ptr noundef nonnull @.str.447)
  store i32 %1, ptr @proto_dhcpv6, align 4
  tail call void @proto_register_field_array(i32 noundef %1, ptr noundef nonnull @proto_register_dhcpv6.hf, i32 noundef 215)
  tail call void @proto_register_subtree_array(ptr noundef nonnull @proto_register_dhcpv6.ett, i32 noundef 20)
  %2 = load i32, ptr @proto_dhcpv6, align 4
  %3 = tail call ptr @expert_register_protocol(i32 noundef %2)
  tail call void @expert_register_field_array(ptr noundef %3, ptr noundef nonnull @proto_register_dhcpv6.ei, i32 noundef 14)
  %4 = tail call i32 @proto_register_protocol(ptr noundef nonnull @.str.448, ptr noundef nonnull @.str.448, ptr noundef nonnull @.str.449)
  store i32 %4, ptr @proto_dhcpv6_bulk_leasequery, align 4
  %5 = tail call ptr @register_dissector(ptr noundef nonnull @.str.449, ptr noundef nonnull @dissect_dhcpv6_bulk_leasequery, i32 noundef %4)
  %6 = load i32, ptr @proto_dhcpv6_bulk_leasequery, align 4
  tail call void @proto_register_field_array(i32 noundef %6, ptr noundef nonnull @proto_register_dhcpv6.bulk_leasequery_hf, i32 noundef 4)
  tail call void @proto_register_subtree_array(ptr noundef nonnull @proto_register_dhcpv6.ett_bulk_leasequery, i32 noundef 2)
  %7 = load i32, ptr @proto_dhcpv6_bulk_leasequery, align 4
  %8 = tail call ptr @expert_register_protocol(i32 noundef %7)
  tail call void @expert_register_field_array(ptr noundef %8, ptr noundef nonnull @proto_register_dhcpv6.ei_bulk_leasequery, i32 noundef 2)
  %9 = load i32, ptr @proto_dhcpv6, align 4
  %10 = tail call ptr @register_dissector(ptr noundef nonnull @.str.447, ptr noundef nonnull @dissect_dhcpv6_stream, i32 noundef %9)
  store ptr %10, ptr @dhcpv6_handle, align 8
  %11 = load i32, ptr @proto_dhcpv6, align 4
  %12 = tail call ptr @prefs_register_protocol(i32 noundef %11, ptr noundef null)
  tail call void @prefs_register_bool_preference(ptr noundef %12, ptr noundef nonnull @.str.450, ptr noundef nonnull @.str.451, ptr noundef nonnull @.str.452, ptr noundef nonnull @cablelabs_interface_id)
  %13 = load i32, ptr @proto_dhcpv6_bulk_leasequery, align 4
  %14 = tail call ptr @prefs_register_protocol(i32 noundef %13, ptr noundef null)
  tail call void @prefs_register_bool_preference(ptr noundef %14, ptr noundef nonnull @.str.453, ptr noundef nonnull @.str.454, ptr noundef nonnull @.str.455, ptr noundef nonnull @dhcpv6_bulk_leasequery_desegment)
  %15 = load i32, ptr @proto_dhcpv6, align 4
  %16 = tail call ptr @register_dissector_table(ptr noundef nonnull @.str.456, ptr noundef nonnull @.str.457, i32 noundef %15, i32 noundef 7, i32 noundef 1)
  store ptr %16, ptr @dhcpv6_enterprise_opts_dissector_table, align 8
  %17 = tail call i32 @proto_register_protocol(ptr noundef nonnull @.str.458, ptr noundef nonnull @.str.459, ptr noundef nonnull @.str.460)
  %18 = tail call ptr @register_dissector(ptr noundef nonnull @.str.460, ptr noundef nonnull @dissect_cablelabs_specific_opts, i32 noundef %17)
  store ptr %18, ptr @dhcpv6_cablelabs_handle, align 8
  tail call void @dissector_add_uint(ptr noundef nonnull @.str.456, i32 noundef 4491, ptr noundef %18)
  ret void
}